target datalayout = "e-m:e-p270:32:32-p271:32:32-p272:64:64-i64:64-i128:128-f80:128-n8:16:32:64-S128"
target triple = "x86_64-unknown-linux-gnu"

@_ZN8proxygen5http216kFrameHeaderSizeE = external constant i32, align 4
@_ZN8proxygen5http218kFramePrioritySizeE = external constant i32, align 4

; Function Attrs: mustprogress nounwind uwtable
define noundef zeroext i8 @_ZN8proxygen5http227calculatePreHeaderBlockSizeEbbbb(i1 noundef zeroext %hasAssocStream, i1 noundef zeroext %hasExAttributes, i1 noundef zeroext %hasPriority, i1 noundef zeroext %hasPadding) #4 {
entry:
  %hasAssocStream.addr = alloca i8, align 1
  %hasExAttributes.addr = alloca i8, align 1
  %hasPriority.addr = alloca i8, align 1
  %hasPadding.addr = alloca i8, align 1
  %headerSize = alloca i8, align 1
  %frombool = zext i1 %hasAssocStream to i8
  store i8 %frombool, ptr %hasAssocStream.addr, align 1
  %frombool1 = zext i1 %hasExAttributes to i8
  store i8 %frombool1, ptr %hasExAttributes.addr, align 1
  %frombool2 = zext i1 %hasPriority to i8
  store i8 %frombool2, ptr %hasPriority.addr, align 1
  %frombool3 = zext i1 %hasPadding to i8
  store i8 %frombool3, ptr %hasPadding.addr, align 1
  %0 = load i32, ptr @_ZN8proxygen5http216kFrameHeaderSizeE, align 4
  %conv = zext i32 %0 to i64
  %1 = load i8, ptr %hasAssocStream.addr, align 1
  %tobool = trunc i8 %1 to i1
  br i1 %tobool, label %lor.end, label %lor.rhs

lor.rhs:                                          ; preds = %entry
  %2 = load i8, ptr %hasExAttributes.addr, align 1
  %tobool4 = trunc i8 %2 to i1
  br label %lor.end

lor.end:                                          ; preds = %lor.rhs, %entry
  %3 = phi i1 [ true, %entry ], [ %tobool4, %lor.rhs ]
  %cond = select i1 %3, i64 4, i64 0
  %add = add i64 %conv, %cond
  %conv5 = trunc i64 %add to i8
  store i8 %conv5, ptr %headerSize, align 1
  %4 = load i8, ptr %hasPriority.addr, align 1
  %tobool6 = trunc i8 %4 to i1
  br i1 %tobool6, label %land.lhs.true, label %if.end

land.lhs.true:                                    ; preds = %lor.end
  %5 = load i8, ptr %hasAssocStream.addr, align 1
  %tobool7 = trunc i8 %5 to i1
  br i1 %tobool7, label %if.end, label %if.then

if.then:                                          ; preds = %land.lhs.true
  %6 = load i32, ptr @_ZN8proxygen5http218kFramePrioritySizeE, align 4
  %7 = load i8, ptr %headerSize, align 1
  %conv8 = zext i8 %7 to i32
  %add9 = add i32 %conv8, %6
  %conv10 = trunc i32 %add9 to i8
  store i8 %conv10, ptr %headerSize, align 1
  br label %if.end

if.end:                                           ; preds = %if.then, %land.lhs.true, %lor.end
  %8 = load i8, ptr %hasPadding.addr, align 1
  %tobool11 = trunc i8 %8 to i1
  br i1 %tobool11, label %if.then12, label %if.end16

if.then12:                                        ; preds = %if.end
  %9 = load i8, ptr %headerSize, align 1
  %conv13 = zext i8 %9 to i32
  %add14 = add nsw i32 %conv13, 1
  %conv15 = trunc i32 %add14 to i8
  store i8 %conv15, ptr %headerSize, align 1
  br label %if.end16

if.end16:                                         ; preds = %if.then12, %if.end
  %10 = load i8, ptr %headerSize, align 1
  ret i8 %10
}