; Function Attrs: mustprogress nofree norecurse nosync nounwind willreturn memory(none) uwtable
define noundef zeroext i8 @_ZN8proxygen5http227calculatePreHeaderBlockSizeEbbbb(i1 noundef zeroext %hasAssocStream, i1 noundef zeroext %hasExAttributes, i1 noundef zeroext %hasPriority, i1 noundef zeroext %hasPadding) local_unnamed_addr #3 {
entry:
  %0 = load i32, ptr @_ZN8proxygen5http216kFrameHeaderSizeE, align 4
  %conv = trunc i32 %0 to i8
  %1 = or i1 %hasAssocStream, %hasExAttributes
  %cond = select i1 %1, i8 4, i8 0
  %hasPriority.not = xor i1 %hasPriority, true
  %brmerge = or i1 %hasPriority.not, %hasAssocStream
  %2 = load i32, ptr @_ZN8proxygen5http218kFramePrioritySizeE, align 4
  %3 = trunc i32 %2 to i8
  %conv10 = select i1 %brmerge, i8 0, i8 %3
  %add14 = zext i1 %hasPadding to i8
  %add = or disjoint i8 %cond, %add14
  %headerSize.0 = add i8 %add, %conv
  %headerSize.1 = add i8 %headerSize.0, %conv10
  ret i8 %headerSize.1
}